target datalayout = "e-m:e-p270:32:32-p271:32:32-p272:64:64-i64:64-i128:128-f80:128-n8:16:32:64-S128"
target triple = "x86_64-unknown-linux-gnu"

%"struct.ClipperLib::IntPoint" = type { i64, i64 }
%"struct.ClipperLib::OutPt" = type { i32, %"struct.ClipperLib::IntPoint", ptr, ptr }
%"struct.ClipperLib::OutRec" = type { i32, i8, i8, ptr, ptr, ptr, ptr }

; Function Attrs: mustprogress nounwind uwtable
define hidden noundef double @_ZN10ClipperLib4AreaEPKNS_5OutPtE(ptr noundef %op) #1 {
entry:
  %retval = alloca double, align 8
  %op.addr = alloca ptr, align 8
  %startOp = alloca ptr, align 8
  %a = alloca double, align 8
  store ptr %op, ptr %op.addr, align 8
  %0 = load ptr, ptr %op.addr, align 8
  store ptr %0, ptr %startOp, align 8
  %1 = load ptr, ptr %op.addr, align 8
  %tobool = icmp ne ptr %1, null
  br i1 %tobool, label %if.end, label %if.then

if.then:                                          ; preds = %entry
  store double 0.000000e+00, ptr %retval, align 8
  br label %return

if.end:                                           ; preds = %entry
  store double 0.000000e+00, ptr %a, align 8
  br label %do.body

do.body:                                          ; preds = %do.cond, %if.end
  %2 = load ptr, ptr %op.addr, align 8
  %Prev = getelementptr inbounds %"struct.ClipperLib::OutPt", ptr %2, i32 0, i32 3
  %3 = load ptr, ptr %Prev, align 8
  %Pt = getelementptr inbounds %"struct.ClipperLib::OutPt", ptr %3, i32 0, i32 1
  %X = getelementptr inbounds %"struct.ClipperLib::IntPoint", ptr %Pt, i32 0, i32 0
  %4 = load i64, ptr %X, align 8
  %5 = load ptr, ptr %op.addr, align 8
  %Pt1 = getelementptr inbounds %"struct.ClipperLib::OutPt", ptr %5, i32 0, i32 1
  %X2 = getelementptr inbounds %"struct.ClipperLib::IntPoint", ptr %Pt1, i32 0, i32 0
  %6 = load i64, ptr %X2, align 8
  %add = add nsw i64 %4, %6
  %conv = sitofp i64 %add to double
  %7 = load ptr, ptr %op.addr, align 8
  %Prev3 = getelementptr inbounds %"struct.ClipperLib::OutPt", ptr %7, i32 0, i32 3
  %8 = load ptr, ptr %Prev3, align 8
  %Pt4 = getelementptr inbounds %"struct.ClipperLib::OutPt", ptr %8, i32 0, i32 1
  %Y = getelementptr inbounds %"struct.ClipperLib::IntPoint", ptr %Pt4, i32 0, i32 1
  %9 = load i64, ptr %Y, align 8
  %10 = load ptr, ptr %op.addr, align 8
  %Pt5 = getelementptr inbounds %"struct.ClipperLib::OutPt", ptr %10, i32 0, i32 1
  %Y6 = getelementptr inbounds %"struct.ClipperLib::IntPoint", ptr %Pt5, i32 0, i32 1
  %11 = load i64, ptr %Y6, align 8
  %sub = sub nsw i64 %9, %11
  %conv7 = sitofp i64 %sub to double
  %12 = load double, ptr %a, align 8
  %13 = call double @llvm.fmuladd.f64(double %conv, double %conv7, double %12)
  store double %13, ptr %a, align 8
  %14 = load ptr, ptr %op.addr, align 8
  %Next = getelementptr inbounds %"struct.ClipperLib::OutPt", ptr %14, i32 0, i32 2
  %15 = load ptr, ptr %Next, align 8
  store ptr %15, ptr %op.addr, align 8
  br label %do.cond

do.cond:                                          ; preds = %do.body
  %16 = load ptr, ptr %op.addr, align 8
  %17 = load ptr, ptr %startOp, align 8
  %cmp = icmp ne ptr %16, %17
  br i1 %cmp, label %do.body, label %do.end, !llvm.loop !8

do.end:                                           ; preds = %do.cond
  %18 = load double, ptr %a, align 8
  %mul = fmul double %18, 5.000000e-01
  store double %mul, ptr %retval, align 8
  br label %return

return:                                           ; preds = %do.end, %if.then
  %19 = load double, ptr %retval, align 8
  ret double %19
}

; Function Attrs: mustprogress nounwind uwtable
define hidden noundef double @_ZN10ClipperLib4AreaERKNS_6OutRecE(ptr noundef nonnull align 8 dereferenceable(40) %outRec) #1 {
entry:
  %outRec.addr = alloca ptr, align 8
  store ptr %outRec, ptr %outRec.addr, align 8
  %0 = load ptr, ptr %outRec.addr, align 8
  %Pts = getelementptr inbounds %"struct.ClipperLib::OutRec", ptr %0, i32 0, i32 5
  %1 = load ptr, ptr %Pts, align 8
  %call = call noundef double @_ZN10ClipperLib4AreaEPKNS_5OutPtE(ptr noundef %1)
  ret double %call
}