; Function Attrs: mustprogress nofree norecurse nosync nounwind willreturn memory(read, inaccessiblemem: none) uwtable
define hidden noundef double @_ZN10ClipperLib4AreaERKNS_6OutRecE(ptr nocapture noundef nonnull readonly align 8 dereferenceable(40) %outRec) local_unnamed_addr #1 {
entry:
  %Pts = getelementptr inbounds i8, ptr %outRec, i64 24
  %0 = load ptr, ptr %Pts, align 8
  %tobool.not.i = icmp eq ptr %0, null
  br i1 %tobool.not.i, label %_ZN10ClipperLib4AreaEPKNS_5OutPtE.exit, label %do.body.i

do.body.i:                                        ; preds = %entry, %do.body.i
  %op.addr.0.i = phi ptr [ %7, %do.body.i ], [ %0, %entry ]
  %a.0.i = phi double [ %6, %do.body.i ], [ 0.000000e+00, %entry ]
  %Prev.i = getelementptr inbounds i8, ptr %op.addr.0.i, i64 32
  %1 = load ptr, ptr %Prev.i, align 8
  %Pt.i = getelementptr inbounds i8, ptr %1, i64 8
  %2 = load i64, ptr %Pt.i, align 8
  %Pt1.i = getelementptr inbounds i8, ptr %op.addr.0.i, i64 8
  %3 = load i64, ptr %Pt1.i, align 8
  %add.i = add nsw i64 %3, %2
  %conv.i = sitofp i64 %add.i to double
  %Y.i = getelementptr inbounds i8, ptr %1, i64 16
  %4 = load i64, ptr %Y.i, align 8
  %Y6.i = getelementptr inbounds i8, ptr %op.addr.0.i, i64 16
  %5 = load i64, ptr %Y6.i, align 8
  %sub.i = sub nsw i64 %4, %5
  %conv7.i = sitofp i64 %sub.i to double
  %6 = tail call double @llvm.fmuladd.f64(double %conv.i, double %conv7.i, double %a.0.i)
  %Next.i = getelementptr inbounds i8, ptr %op.addr.0.i, i64 24
  %7 = load ptr, ptr %Next.i, align 8
  %cmp.not.i = icmp eq ptr %7, %0
  br i1 %cmp.not.i, label %do.end.i, label %do.body.i, !llvm.loop !8

do.end.i:                                         ; preds = %do.body.i
  %mul.i = fmul double %6, 5.000000e-01
  br label %_ZN10ClipperLib4AreaEPKNS_5OutPtE.exit

_ZN10ClipperLib4AreaEPKNS_5OutPtE.exit:           ; preds = %entry, %do.end.i
  %retval.0.i = phi double [ %mul.i, %do.end.i ], [ 0.000000e+00, %entry ]
  ret double %retval.0.i
}